; Function Attrs: mustprogress nofree norecurse nosync nounwind willreturn memory(read, argmem: readwrite, inaccessiblemem: none) uwtable
define hidden void @_ZN6Assimp11B3DImporter9ExitChunkEv(ptr nocapture noundef nonnull align 8 dereferenceable(312) %this) local_unnamed_addr #9 align 2 {
entry:
  %_M_finish.i.i = getelementptr inbounds i8, ptr %this, i64 112
  %0 = load ptr, ptr %_M_finish.i.i, align 8
  %add.ptr.i.i = getelementptr inbounds i8, ptr %0, i64 -8
  %1 = load i64, ptr %add.ptr.i.i, align 8
  %_pos = getelementptr inbounds i8, ptr %this, i64 72
  store i64 %1, ptr %_pos, align 8
  store ptr %add.ptr.i.i, ptr %_M_finish.i.i, align 8
  ret void
}